; Function Attrs: mustprogress uwtable
define noundef zeroext i1 @_ZN7rocksdb14AutoRollLogger10LogExpiredEv(ptr noundef nonnull align 8 captures(none) dereferenceable(648) %0) local_unnamed_addr #0 align 2 {
  %2 = getelementptr inbounds nuw i8, ptr %0, i64 352
  %3 = load i64, ptr %2, align 8, !tbaa !100
  %4 = getelementptr inbounds nuw i8, ptr %0, i64 360
  %5 = load i64, ptr %4, align 8, !tbaa !101
  %.not = icmp ult i64 %3, %5
  br i1 %.not, label %._crit_edge, label %7

._crit_edge:                                      ; preds = %1
  %.phi.trans.insert = getelementptr inbounds nuw i8, ptr %0, i64 336
  %.pre = load i64, ptr %.phi.trans.insert, align 8, !tbaa !98
  %6 = add nuw i64 %3, 1
  br label %18

7:                                                ; preds = %1
  %8 = getelementptr inbounds nuw i8, ptr %0, i64 160
  %9 = load ptr, ptr %8, align 8, !tbaa !31
  %10 = load ptr, ptr %9, align 8, !tbaa !11
  %11 = getelementptr inbounds nuw i8, ptr %10, i64 152
  %12 = load ptr, ptr %11, align 8
  %13 = tail call noundef i64 %12(ptr noundef nonnull align 8 dereferenceable(32) %9)
  %14 = uitofp i64 %13 to double
  %15 = fmul double %14, 0x3EB0C6F7A0B5ED8D
  %16 = fptoui double %15 to i64
  %17 = getelementptr inbounds nuw i8, ptr %0, i64 336
  store i64 %16, ptr %17, align 8, !tbaa !98
  br label %18

18:                                               ; preds = %._crit_edge, %7
  %19 = phi i64 [ %16, %7 ], [ %.pre, %._crit_edge ]
  %20 = phi i64 [ 1, %7 ], [ %6, %._crit_edge ]
  store i64 %20, ptr %2, align 8, !tbaa !100
  %21 = getelementptr inbounds nuw i8, ptr %0, i64 344
  %22 = load i64, ptr %21, align 8, !tbaa !99
  %23 = getelementptr inbounds nuw i8, ptr %0, i64 216
  %24 = load i64, ptr %23, align 8, !tbaa !94
  %25 = add i64 %24, %22
  %26 = icmp uge i64 %19, %25
  ret i1 %26
}